target datalayout = "e-m:e-p270:32:32-p271:32:32-p272:64:64-i64:64-i128:128-f80:128-n8:16:32:64-S128"
target triple = "x86_64-pc-linux-gnu"

%struct.lconv = type { ptr, ptr, ptr, ptr, ptr, ptr, ptr, ptr, ptr, ptr, i8, i8, i8, i8, i8, i8, i8, i8, i8, i8, i8, i8, i8, i8 }

@PyExc_RuntimeWarning = external global ptr, align 8
@.str.5 = private unnamed_addr constant [30 x i8] c"failed to get LC_CTYPE locale\00", align 1

; Function Attrs: nounwind uwtable
define hidden i32 @_Py_GetLocaleconvNumeric(ptr noundef %0, ptr noundef %1, ptr noundef %2) #0 {
  %4 = alloca i32, align 4
  %5 = alloca ptr, align 8
  %6 = alloca ptr, align 8
  %7 = alloca ptr, align 8
  %8 = alloca i32, align 4
  %9 = alloca ptr, align 8
  %10 = alloca ptr, align 8
  %11 = alloca i32, align 4
  %12 = alloca i32, align 4
  store ptr %0, ptr %5, align 8, !tbaa !208
  store ptr %1, ptr %6, align 8, !tbaa !210
  store ptr %2, ptr %7, align 8, !tbaa !210
  call void @llvm.lifetime.start.p0(i64 4, ptr %8) #10
  store i32 0, ptr %8, align 4, !tbaa !4
  %13 = load ptr, ptr %5, align 8, !tbaa !208
  %14 = getelementptr inbounds nuw %struct.lconv, ptr %13, i32 0, i32 0
  %15 = load ptr, ptr %14, align 8, !tbaa !211
  %16 = call i64 @strlen(ptr noundef %15) #11
  %17 = icmp ugt i64 %16, 1
  br i1 %17, label %26, label %18

18:                                               ; preds = %3
  %19 = load ptr, ptr %5, align 8, !tbaa !208
  %20 = getelementptr inbounds nuw %struct.lconv, ptr %19, i32 0, i32 0
  %21 = load ptr, ptr %20, align 8, !tbaa !211
  %22 = getelementptr i8, ptr %21, i64 0
  %23 = load i8, ptr %22, align 1, !tbaa !181
  %24 = zext i8 %23 to i32
  %25 = icmp sgt i32 %24, 127
  br i1 %25, label %26, label %27

26:                                               ; preds = %18, %3
  store i32 1, ptr %8, align 4, !tbaa !4
  br label %27

27:                                               ; preds = %26, %18
  %28 = load ptr, ptr %5, align 8, !tbaa !208
  %29 = getelementptr inbounds nuw %struct.lconv, ptr %28, i32 0, i32 1
  %30 = load ptr, ptr %29, align 8, !tbaa !213
  %31 = call i64 @strlen(ptr noundef %30) #11
  %32 = icmp ugt i64 %31, 1
  br i1 %32, label %41, label %33

33:                                               ; preds = %27
  %34 = load ptr, ptr %5, align 8, !tbaa !208
  %35 = getelementptr inbounds nuw %struct.lconv, ptr %34, i32 0, i32 1
  %36 = load ptr, ptr %35, align 8, !tbaa !213
  %37 = getelementptr i8, ptr %36, i64 0
  %38 = load i8, ptr %37, align 1, !tbaa !181
  %39 = zext i8 %38 to i32
  %40 = icmp sgt i32 %39, 127
  br i1 %40, label %41, label %42

41:                                               ; preds = %33, %27
  store i32 1, ptr %8, align 4, !tbaa !4
  br label %42

42:                                               ; preds = %41, %33
  call void @llvm.lifetime.start.p0(i64 8, ptr %9) #10
  store ptr null, ptr %9, align 8, !tbaa !180
  call void @llvm.lifetime.start.p0(i64 8, ptr %10) #10
  store ptr null, ptr %10, align 8, !tbaa !180
  %43 = load i32, ptr %8, align 4, !tbaa !4
  %44 = icmp ne i32 %43, 0
  br i1 %44, label %45, label %75

45:                                               ; preds = %42
  %46 = call ptr @setlocale(i32 noundef 0, ptr noundef null) #10
  store ptr %46, ptr %9, align 8, !tbaa !180
  %47 = load ptr, ptr %9, align 8, !tbaa !180
  %48 = icmp ne ptr %47, null
  br i1 %48, label %51, label %49

49:                                               ; preds = %45
  %50 = load ptr, ptr @PyExc_RuntimeWarning, align 8, !tbaa !178
  call void @PyErr_SetString(ptr noundef %50, ptr noundef @.str.5)
  store i32 -1, ptr %4, align 4
  store i32 1, ptr %11, align 4
  br label %105

51:                                               ; preds = %45
  %52 = load ptr, ptr %9, align 8, !tbaa !180
  %53 = call ptr @_PyMem_Strdup(ptr noundef %52)
  store ptr %53, ptr %9, align 8, !tbaa !180
  %54 = load ptr, ptr %9, align 8, !tbaa !180
  %55 = icmp ne ptr %54, null
  br i1 %55, label %58, label %56

56:                                               ; preds = %51
  %57 = call ptr @PyErr_NoMemory()
  store i32 -1, ptr %4, align 4
  store i32 1, ptr %11, align 4
  br label %105

58:                                               ; preds = %51
  %59 = call ptr @setlocale(i32 noundef 1, ptr noundef null) #10
  store ptr %59, ptr %10, align 8, !tbaa !180
  %60 = load ptr, ptr %10, align 8, !tbaa !180
  %61 = icmp ne ptr %60, null
  br i1 %61, label %62, label %68

62:                                               ; preds = %58
  %63 = load ptr, ptr %10, align 8, !tbaa !180
  %64 = load ptr, ptr %9, align 8, !tbaa !180
  %65 = call i32 @strcmp(ptr noundef %63, ptr noundef %64) #11
  %66 = icmp eq i32 %65, 0
  br i1 %66, label %67, label %68

67:                                               ; preds = %62
  store ptr null, ptr %10, align 8, !tbaa !180
  br label %68

68:                                               ; preds = %67, %62, %58
  %69 = load ptr, ptr %10, align 8, !tbaa !180
  %70 = icmp ne ptr %69, null
  br i1 %70, label %71, label %74

71:                                               ; preds = %68
  %72 = load ptr, ptr %10, align 8, !tbaa !180
  %73 = call ptr @setlocale(i32 noundef 0, ptr noundef %72) #10
  br label %74

74:                                               ; preds = %71, %68
  br label %75

75:                                               ; preds = %74, %42
  call void @llvm.lifetime.start.p0(i64 4, ptr %12) #10
  store i32 -1, ptr %12, align 4, !tbaa !4
  %76 = load ptr, ptr %5, align 8, !tbaa !208
  %77 = getelementptr inbounds nuw %struct.lconv, ptr %76, i32 0, i32 0
  %78 = load ptr, ptr %77, align 8, !tbaa !211
  %79 = call ptr @PyUnicode_DecodeLocale(ptr noundef %78, ptr noundef null)
  %80 = load ptr, ptr %6, align 8, !tbaa !210
  store ptr %79, ptr %80, align 8, !tbaa !178
  %81 = load ptr, ptr %6, align 8, !tbaa !210
  %82 = load ptr, ptr %81, align 8, !tbaa !178
  %83 = icmp eq ptr %82, null
  br i1 %83, label %84, label %85

84:                                               ; preds = %75
  br label %96

85:                                               ; preds = %75
  %86 = load ptr, ptr %5, align 8, !tbaa !208
  %87 = getelementptr inbounds nuw %struct.lconv, ptr %86, i32 0, i32 1
  %88 = load ptr, ptr %87, align 8, !tbaa !213
  %89 = call ptr @PyUnicode_DecodeLocale(ptr noundef %88, ptr noundef null)
  %90 = load ptr, ptr %7, align 8, !tbaa !210
  store ptr %89, ptr %90, align 8, !tbaa !178
  %91 = load ptr, ptr %7, align 8, !tbaa !210
  %92 = load ptr, ptr %91, align 8, !tbaa !178
  %93 = icmp eq ptr %92, null
  br i1 %93, label %94, label %95

94:                                               ; preds = %85
  br label %96

95:                                               ; preds = %85
  store i32 0, ptr %12, align 4, !tbaa !4
  br label %96

96:                                               ; preds = %95, %94, %84
  %97 = load ptr, ptr %10, align 8, !tbaa !180
  %98 = icmp ne ptr %97, null
  br i1 %98, label %99, label %102

99:                                               ; preds = %96
  %100 = load ptr, ptr %9, align 8, !tbaa !180
  %101 = call ptr @setlocale(i32 noundef 0, ptr noundef %100) #10
  br label %102

102:                                              ; preds = %99, %96
  %103 = load ptr, ptr %9, align 8, !tbaa !180
  call void @PyMem_Free(ptr noundef %103)
  %104 = load i32, ptr %12, align 4, !tbaa !4
  store i32 %104, ptr %4, align 4
  store i32 1, ptr %11, align 4
  call void @llvm.lifetime.end.p0(i64 4, ptr %12) #10
  br label %105

105:                                              ; preds = %102, %56, %49
  call void @llvm.lifetime.end.p0(i64 8, ptr %10) #10
  call void @llvm.lifetime.end.p0(i64 8, ptr %9) #10
  call void @llvm.lifetime.end.p0(i64 4, ptr %8) #10
  %106 = load i32, ptr %4, align 4
  ret i32 %106
}