; Function Attrs: nounwind uwtable
define hidden range(i32 -1, 1) i32 @_Py_GetLocaleconvNumeric(ptr noundef readonly captures(none) %0, ptr noundef writeonly captures(none) %1, ptr noundef writeonly captures(none) %2) local_unnamed_addr #0 {
  %4 = load ptr, ptr %0, align 8, !tbaa !200
  %5 = tail call i64 @strlen(ptr noundef nonnull dereferenceable(1) %4) #18
  %6 = icmp ugt i64 %5, 1
  br i1 %6, label %10, label %7

7:                                                ; preds = %3
  %8 = load i8, ptr %4, align 1, !tbaa !175
  %9 = icmp slt i8 %8, 0
  br i1 %9, label %10, label %11

10:                                               ; preds = %7, %3
  br label %11

11:                                               ; preds = %10, %7
  %.not = phi i1 [ false, %10 ], [ true, %7 ]
  %12 = getelementptr inbounds nuw i8, ptr %0, i64 8
  %13 = load ptr, ptr %12, align 8, !tbaa !202
  %14 = tail call i64 @strlen(ptr noundef nonnull dereferenceable(1) %13) #18
  %15 = icmp ugt i64 %14, 1
  br i1 %15, label %.thread, label %16

16:                                               ; preds = %11
  %17 = load i8, ptr %13, align 1, !tbaa !175
  %18 = icmp sgt i8 %17, -1
  %or.cond = and i1 %.not, %18
  br i1 %or.cond, label %.thread39, label %.thread

.thread:                                          ; preds = %16, %11
  %19 = tail call ptr @setlocale(i32 noundef 0, ptr noundef null) #17
  %.not32 = icmp eq ptr %19, null
  br i1 %.not32, label %20, label %22

20:                                               ; preds = %.thread
  %21 = load ptr, ptr @PyExc_RuntimeWarning, align 8, !tbaa !188
  tail call void @PyErr_SetString(ptr noundef %21, ptr noundef nonnull @.str.5) #17
  br label %44

22:                                               ; preds = %.thread
  %23 = tail call ptr @_PyMem_Strdup(ptr noundef nonnull %19) #17
  %.not33 = icmp eq ptr %23, null
  br i1 %.not33, label %24, label %26

24:                                               ; preds = %22
  %25 = tail call ptr @PyErr_NoMemory() #17
  br label %44

26:                                               ; preds = %22
  %27 = tail call ptr @setlocale(i32 noundef 1, ptr noundef null) #17
  %.not34 = icmp eq ptr %27, null
  br i1 %.not34, label %.thread39, label %28

28:                                               ; preds = %26
  %29 = tail call i32 @strcmp(ptr noundef nonnull dereferenceable(1) %27, ptr noundef nonnull dereferenceable(1) %23) #18
  %30 = icmp eq i32 %29, 0
  br i1 %30, label %.thread39, label %31

31:                                               ; preds = %28
  %32 = tail call ptr @setlocale(i32 noundef 0, ptr noundef nonnull %27) #17
  br label %.thread39

.thread39:                                        ; preds = %16, %28, %26, %31
  %.024 = phi ptr [ %23, %31 ], [ %23, %26 ], [ %23, %28 ], [ null, %16 ]
  %.023 = phi i1 [ false, %31 ], [ true, %26 ], [ true, %28 ], [ true, %16 ]
  %33 = load ptr, ptr %0, align 8, !tbaa !200
  %34 = tail call ptr @PyUnicode_DecodeLocale(ptr noundef %33, ptr noundef null) #17
  store ptr %34, ptr %1, align 8, !tbaa !188
  %35 = icmp eq ptr %34, null
  br i1 %35, label %40, label %36

36:                                               ; preds = %.thread39
  %37 = load ptr, ptr %12, align 8, !tbaa !202
  %38 = tail call ptr @PyUnicode_DecodeLocale(ptr noundef %37, ptr noundef null) #17
  store ptr %38, ptr %2, align 8, !tbaa !188
  %39 = icmp eq ptr %38, null
  %spec.select = sext i1 %39 to i32
  br label %40

40:                                               ; preds = %36, %.thread39
  %.0 = phi i32 [ -1, %.thread39 ], [ %spec.select, %36 ]
  br i1 %.023, label %43, label %41

41:                                               ; preds = %40
  %42 = tail call ptr @setlocale(i32 noundef 0, ptr noundef %.024) #17
  br label %43

43:                                               ; preds = %41, %40
  tail call void @PyMem_Free(ptr noundef %.024) #17
  br label %44

44:                                               ; preds = %43, %24, %20
  %.027 = phi i32 [ %.0, %43 ], [ -1, %24 ], [ -1, %20 ]
  ret i32 %.027
}